; Function Attrs: mustprogress uwtable
define internal fastcc void @_ZN12_GLOBAL__N_120makeTryCompileParserERK16cmArgumentParserIN16cmCoreTryCompile9ArgumentsEE(ptr dead_on_unwind noalias writable align 8 %0, ptr noundef nonnull align 8 dereferenceable(112) %1) unnamed_addr #3 personality ptr @__gxx_personality_v0 {
  %3 = alloca %"class.std::function.652", align 8
  %4 = alloca %class.cmArgumentParser, align 8
  call void @_ZN14ArgumentParser9ActionMapC2ERKS0_(ptr noundef nonnull align 8 dereferenceable(112) %4, ptr noundef nonnull align 8 dereferenceable(112) %1)
  call void @llvm.lifetime.start.p0(i64 32, ptr nonnull %3)
  %5 = getelementptr inbounds i8, ptr %3, i64 16
  %6 = getelementptr inbounds i8, ptr %3, i64 24
  %7 = getelementptr inbounds i8, ptr %3, i64 8
  store i64 0, ptr %7, align 8
  store i64 608, ptr %3, align 8
  store ptr @_ZNSt17_Function_handlerIFvRN14ArgumentParser8InstanceEEZN16cmArgumentParserIN16cmCoreTryCompile9ArgumentsEE4BindISt8optionalINSt7__cxx1112basic_stringIcSt11char_traitsIcESaIcEEEEEERS7_N2cm18static_string_viewEMS6_T_EUlS2_E_E9_M_invokeERKSt9_Any_dataS2_, ptr %6, align 8
  store ptr @_ZNSt17_Function_handlerIFvRN14ArgumentParser8InstanceEEZN16cmArgumentParserIN16cmCoreTryCompile9ArgumentsEE4BindISt8optionalINSt7__cxx1112basic_stringIcSt11char_traitsIcESaIcEEEEEERS7_N2cm18static_string_viewEMS6_T_EUlS2_E_E10_M_managerERSt9_Any_dataRKSO_St18_Manager_operation, ptr %5, align 8
  invoke void @_ZN14ArgumentParser4Base4BindESt17basic_string_viewIcSt11char_traitsIcEESt8functionIFvRNS_8InstanceEEE(ptr noundef nonnull align 8 dereferenceable(112) %4, i64 15, ptr nonnull @.str.343, ptr noundef nonnull %3)
          to label %8 unwind label %15

8:                                                ; preds = %2
  %9 = load ptr, ptr %5, align 8
  %.not.i.i.i = icmp eq ptr %9, null
  br i1 %.not.i.i.i, label %23, label %10

10:                                               ; preds = %8
  %11 = invoke noundef zeroext i1 %9(ptr noundef nonnull align 8 dereferenceable(16) %3, ptr noundef nonnull align 8 dereferenceable(16) %3, i32 noundef 3)
          to label %23 unwind label %12

12:                                               ; preds = %10
  %13 = landingpad { ptr, i32 }
          catch ptr null
  %14 = extractvalue { ptr, i32 } %13, 0
  call void @__clang_call_terminate(ptr %14) #22
  unreachable

15:                                               ; preds = %2
  %16 = landingpad { ptr, i32 }
          cleanup
  %17 = load ptr, ptr %5, align 8
  %.not.i.i5.i = icmp eq ptr %17, null
  br i1 %.not.i.i5.i, label %.body, label %18

18:                                               ; preds = %15
  %19 = invoke noundef zeroext i1 %17(ptr noundef nonnull align 8 dereferenceable(16) %3, ptr noundef nonnull align 8 dereferenceable(16) %3, i32 noundef 3)
          to label %.body unwind label %20

20:                                               ; preds = %18
  %21 = landingpad { ptr, i32 }
          catch ptr null
  %22 = extractvalue { ptr, i32 } %21, 0
  call void @__clang_call_terminate(ptr %22) #22
  unreachable

23:                                               ; preds = %10, %8
  call void @llvm.lifetime.end.p0(i64 32, ptr nonnull %3)
  invoke void @_ZN14ArgumentParser9ActionMapC2ERKS0_(ptr noundef nonnull align 8 dereferenceable(112) %0, ptr noundef nonnull align 8 dereferenceable(112) %4)
          to label %_ZN16cmArgumentParserIN16cmCoreTryCompile9ArgumentsEEC2ERKS2_.exit unwind label %24

_ZN16cmArgumentParserIN16cmCoreTryCompile9ArgumentsEEC2ERKS2_.exit: ; preds = %23
  call void @_ZN14ArgumentParser9ActionMapD2Ev(ptr noundef nonnull align 8 dereferenceable(112) %4) #21
  ret void

24:                                               ; preds = %23
  %25 = landingpad { ptr, i32 }
          cleanup
  br label %.body

.body:                                            ; preds = %15, %18, %24
  %eh.lpad-body = phi { ptr, i32 } [ %25, %24 ], [ %16, %18 ], [ %16, %15 ]
  call void @_ZN14ArgumentParser9ActionMapD2Ev(ptr noundef nonnull align 8 dereferenceable(112) %4) #21
  resume { ptr, i32 } %eh.lpad-body
}